target datalayout = "e-m:e-p270:32:32-p271:32:32-p272:64:64-i64:64-i128:128-f80:128-n8:16:32:64-S128"
target triple = "x86_64-pc-linux-gnu"

%struct.FFDemuxSubtitlesQueue = type { ptr, i32, i32, i32, i32, i32 }

; Function Attrs: nounwind uwtable
define void @ff_subtitles_queue_clean(ptr noundef %0) #0 {
  %2 = alloca ptr, align 8
  %3 = alloca i32, align 4
  store ptr %0, ptr %2, align 8, !tbaa !4
  call void @llvm.lifetime.start.p0(i64 4, ptr %3) #9
  store i32 0, ptr %3, align 4, !tbaa !21
  br label %4

4:                                                ; preds = %17, %1
  %5 = load i32, ptr %3, align 4, !tbaa !21
  %6 = load ptr, ptr %2, align 8, !tbaa !4
  %7 = getelementptr inbounds nuw %struct.FFDemuxSubtitlesQueue, ptr %6, i32 0, i32 1
  %8 = load i32, ptr %7, align 8, !tbaa !29
  %9 = icmp slt i32 %5, %8
  br i1 %9, label %10, label %20

10:                                               ; preds = %4
  %11 = load ptr, ptr %2, align 8, !tbaa !4
  %12 = getelementptr inbounds nuw %struct.FFDemuxSubtitlesQueue, ptr %11, i32 0, i32 0
  %13 = load ptr, ptr %12, align 8, !tbaa !33
  %14 = load i32, ptr %3, align 4, !tbaa !21
  %15 = sext i32 %14 to i64
  %16 = getelementptr inbounds ptr, ptr %13, i64 %15
  call void @av_packet_free(ptr noundef %16)
  br label %17

17:                                               ; preds = %10
  %18 = load i32, ptr %3, align 4, !tbaa !21
  %19 = add nsw i32 %18, 1
  store i32 %19, ptr %3, align 4, !tbaa !21
  br label %4, !llvm.loop !66

20:                                               ; preds = %4
  %21 = load ptr, ptr %2, align 8, !tbaa !4
  %22 = getelementptr inbounds nuw %struct.FFDemuxSubtitlesQueue, ptr %21, i32 0, i32 0
  call void @av_freep(ptr noundef %22)
  %23 = load ptr, ptr %2, align 8, !tbaa !4
  %24 = getelementptr inbounds nuw %struct.FFDemuxSubtitlesQueue, ptr %23, i32 0, i32 3
  store i32 0, ptr %24, align 8, !tbaa !59
  %25 = load ptr, ptr %2, align 8, !tbaa !4
  %26 = getelementptr inbounds nuw %struct.FFDemuxSubtitlesQueue, ptr %25, i32 0, i32 2
  store i32 0, ptr %26, align 4, !tbaa !67
  %27 = load ptr, ptr %2, align 8, !tbaa !4
  %28 = getelementptr inbounds nuw %struct.FFDemuxSubtitlesQueue, ptr %27, i32 0, i32 1
  store i32 0, ptr %28, align 8, !tbaa !29
  call void @llvm.lifetime.end.p0(i64 4, ptr %3) #9
  ret void
}