; Function Attrs: nounwind uwtable
define void @ff_subtitles_queue_clean(ptr noundef %0) local_unnamed_addr #0 {
  %2 = getelementptr inbounds nuw i8, ptr %0, i64 8
  %3 = load i32, ptr %2, align 8, !tbaa !23
  %4 = icmp sgt i32 %3, 0
  br i1 %4, label %.lr.ph, label %._crit_edge

.lr.ph:                                           ; preds = %1, %.lr.ph
  %indvars.iv = phi i64 [ %indvars.iv.next, %.lr.ph ], [ 0, %1 ]
  %5 = load ptr, ptr %0, align 8, !tbaa !27
  %6 = getelementptr inbounds nuw ptr, ptr %5, i64 %indvars.iv
  tail call void @av_packet_free(ptr noundef %6) #11
  %indvars.iv.next = add nuw nsw i64 %indvars.iv, 1
  %7 = load i32, ptr %2, align 8, !tbaa !23
  %8 = sext i32 %7 to i64
  %9 = icmp slt i64 %indvars.iv.next, %8
  br i1 %9, label %.lr.ph, label %._crit_edge, !llvm.loop !53

._crit_edge:                                      ; preds = %.lr.ph, %1
  tail call void @av_freep(ptr noundef nonnull %0) #11
  %10 = getelementptr inbounds nuw i8, ptr %0, i64 16
  store i32 0, ptr %10, align 8, !tbaa !49
  %11 = getelementptr inbounds nuw i8, ptr %0, i64 12
  store i32 0, ptr %11, align 4, !tbaa !54
  store i32 0, ptr %2, align 8, !tbaa !23
  ret void
}